
KillerPlow.elf:     file format elf32-avr

Sections:
Idx Name          Size      VMA       LMA       File off  Algn
  0 .data         0000002c  00800100  000005ba  0000064e  2**0
                  CONTENTS, ALLOC, LOAD, DATA
  1 .text         000005ba  00000000  00000000  00000094  2**1
                  CONTENTS, ALLOC, LOAD, READONLY, CODE
  2 .bss          0000003f  0080012c  0080012c  0000067a  2**0
                  ALLOC
  3 .comment      00000030  00000000  00000000  0000067a  2**0
                  CONTENTS, READONLY

Disassembly of section .text:

00000000 <__vectors>:
   0:	19 c0       	rjmp	.+50     	; 0x34 <__ctors_end>
   2:	33 c0       	rjmp	.+102    	; 0x6a <__bad_interrupt>
   4:	32 c0       	rjmp	.+100    	; 0x6a <__bad_interrupt>
   6:	31 c0       	rjmp	.+98     	; 0x6a <__bad_interrupt>
   8:	30 c0       	rjmp	.+96     	; 0x6a <__bad_interrupt>
   a:	2f c0       	rjmp	.+94     	; 0x6a <__bad_interrupt>
   c:	2e c0       	rjmp	.+92     	; 0x6a <__bad_interrupt>
   e:	2d c0       	rjmp	.+90     	; 0x6a <__bad_interrupt>
  10:	2c c0       	rjmp	.+88     	; 0x6a <__bad_interrupt>
  12:	2b c0       	rjmp	.+86     	; 0x6a <__bad_interrupt>
  14:	2a c0       	rjmp	.+84     	; 0x6a <__bad_interrupt>
  16:	29 c0       	rjmp	.+82     	; 0x6a <__bad_interrupt>
  18:	28 c0       	rjmp	.+80     	; 0x6a <__bad_interrupt>
  1a:	27 c0       	rjmp	.+78     	; 0x6a <__bad_interrupt>
  1c:	26 c0       	rjmp	.+76     	; 0x6a <__bad_interrupt>
  1e:	25 c0       	rjmp	.+74     	; 0x6a <__bad_interrupt>
  20:	24 c0       	rjmp	.+72     	; 0x6a <__bad_interrupt>
  22:	23 c0       	rjmp	.+70     	; 0x6a <__bad_interrupt>
  24:	b6 c0       	rjmp	.+364    	; 0x192 <__vector_18>
  26:	74 c0       	rjmp	.+232    	; 0x110 <__vector_19>
  28:	20 c0       	rjmp	.+64     	; 0x6a <__bad_interrupt>
  2a:	74 c1       	rjmp	.+744    	; 0x314 <__vector_21>
  2c:	1e c0       	rjmp	.+60     	; 0x6a <__bad_interrupt>
  2e:	1d c0       	rjmp	.+58     	; 0x6a <__bad_interrupt>
  30:	1c c0       	rjmp	.+56     	; 0x6a <__bad_interrupt>
  32:	1b c0       	rjmp	.+54     	; 0x6a <__bad_interrupt>

00000034 <__ctors_end>:
  34:	11 24       	eor	r1, r1
  36:	1f be       	out	0x3f, r1	; 63
  38:	cf ef       	ldi	r28, 0xFF	; 255
  3a:	d4 e0       	ldi	r29, 0x04	; 4
  3c:	de bf       	out	0x3e, r29	; 62
  3e:	cd bf       	out	0x3d, r28	; 61

00000040 <__do_copy_data>:
  40:	11 e0       	ldi	r17, 0x01	; 1
  42:	a0 e0       	ldi	r26, 0x00	; 0
  44:	b1 e0       	ldi	r27, 0x01	; 1
  46:	ea eb       	ldi	r30, 0xBA	; 186
  48:	f5 e0       	ldi	r31, 0x05	; 5
  4a:	02 c0       	rjmp	.+4      	; 0x50 <__do_copy_data+0x10>
  4c:	05 90       	lpm	r0, Z+
  4e:	0d 92       	st	X+, r0
  50:	ac 32       	cpi	r26, 0x2C	; 44
  52:	b1 07       	cpc	r27, r17
  54:	d9 f7       	brne	.-10     	; 0x4c <__do_copy_data+0xc>

00000056 <__do_clear_bss>:
  56:	21 e0       	ldi	r18, 0x01	; 1
  58:	ac e2       	ldi	r26, 0x2C	; 44
  5a:	b1 e0       	ldi	r27, 0x01	; 1
  5c:	01 c0       	rjmp	.+2      	; 0x60 <.do_clear_bss_start>

0000005e <.do_clear_bss_loop>:
  5e:	1d 92       	st	X+, r1

00000060 <.do_clear_bss_start>:
  60:	ab 36       	cpi	r26, 0x6B	; 107
  62:	b2 07       	cpc	r27, r18
  64:	e1 f7       	brne	.-8      	; 0x5e <.do_clear_bss_loop>
  66:	d4 d1       	rcall	.+936    	; 0x410 <main>
  68:	a6 c2       	rjmp	.+1356   	; 0x5b6 <_exit>

0000006a <__bad_interrupt>:
  6a:	4a c1       	rjmp	.+660    	; 0x300 <__vector_default>

0000006c <USART_Init>:
  6c:	0f 93       	push	r16
  6e:	1f 93       	push	r17
  70:	07 2f       	mov	r16, r23
  72:	18 2f       	mov	r17, r24
  74:	29 2f       	mov	r18, r25
  76:	33 27       	eor	r19, r19
  78:	00 93 c5 00 	sts	0x00C5, r16
  7c:	60 93 c4 00 	sts	0x00C4, r22
  80:	e1 ec       	ldi	r30, 0xC1	; 193
  82:	f0 e0       	ldi	r31, 0x00	; 0
  84:	88 e1       	ldi	r24, 0x18	; 24
  86:	80 83       	st	Z, r24
  88:	86 e0       	ldi	r24, 0x06	; 6
  8a:	80 93 c2 00 	sts	0x00C2, r24
  8e:	80 81       	ld	r24, Z
  90:	88 69       	ori	r24, 0x98	; 152
  92:	80 83       	st	Z, r24
  94:	1f 91       	pop	r17
  96:	0f 91       	pop	r16
  98:	08 95       	ret

0000009a <uart_putc>:
  9a:	90 91 2d 01 	lds	r25, 0x012D
  9e:	9f 5f       	subi	r25, 0xFF	; 255
  a0:	9f 70       	andi	r25, 0x0F	; 15
  a2:	20 91 2e 01 	lds	r18, 0x012E
  a6:	92 17       	cp	r25, r18
  a8:	e1 f3       	breq	.-8      	; 0xa2 <uart_putc+0x8>
  aa:	e9 2f       	mov	r30, r25
  ac:	f0 e0       	ldi	r31, 0x00	; 0
  ae:	e1 5d       	subi	r30, 0xD1	; 209
  b0:	fe 4f       	sbci	r31, 0xFE	; 254
  b2:	80 83       	st	Z, r24
  b4:	90 93 2d 01 	sts	0x012D, r25
  b8:	80 91 c1 00 	lds	r24, 0x00C1
  bc:	80 62       	ori	r24, 0x20	; 32
  be:	80 93 c1 00 	sts	0x00C1, r24
  c2:	08 95       	ret

000000c4 <uart_puts>:
  c4:	cf 93       	push	r28
  c6:	df 93       	push	r29
  c8:	ec 01       	movw	r28, r24
  ca:	89 91       	ld	r24, Y+
  cc:	88 23       	and	r24, r24
  ce:	11 f0       	breq	.+4      	; 0xd4 <uart_puts+0x10>
  d0:	e4 df       	rcall	.-56     	; 0x9a <uart_putc>
  d2:	fb cf       	rjmp	.-10     	; 0xca <uart_puts+0x6>
  d4:	df 91       	pop	r29
  d6:	cf 91       	pop	r28
  d8:	08 95       	ret

000000da <uart_putint>:
  da:	cf 93       	push	r28
  dc:	df 93       	push	r29
  de:	cd b7       	in	r28, 0x3d	; 61
  e0:	de b7       	in	r29, 0x3e	; 62
  e2:	61 97       	sbiw	r28, 0x11	; 17
  e4:	0f b6       	in	r0, 0x3f	; 63
  e6:	f8 94       	cli
  e8:	de bf       	out	0x3e, r29	; 62
  ea:	0f be       	out	0x3f, r0	; 63
  ec:	cd bf       	out	0x3d, r28	; 61
  ee:	ab 01       	movw	r20, r22
  f0:	be 01       	movw	r22, r28
  f2:	6f 5f       	subi	r22, 0xFF	; 255
  f4:	7f 4f       	sbci	r23, 0xFF	; 255
  f6:	22 d2       	rcall	.+1092   	; 0x53c <itoa>
  f8:	ce 01       	movw	r24, r28
  fa:	01 96       	adiw	r24, 0x01	; 1
  fc:	e3 df       	rcall	.-58     	; 0xc4 <uart_puts>
  fe:	61 96       	adiw	r28, 0x11	; 17
 100:	0f b6       	in	r0, 0x3f	; 63
 102:	f8 94       	cli
 104:	de bf       	out	0x3e, r29	; 62
 106:	0f be       	out	0x3f, r0	; 63
 108:	cd bf       	out	0x3d, r28	; 61
 10a:	df 91       	pop	r29
 10c:	cf 91       	pop	r28
 10e:	08 95       	ret

00000110 <__vector_19>:
 110:	1f 92       	push	r1
 112:	0f 92       	push	r0
 114:	0f b6       	in	r0, 0x3f	; 63
 116:	0f 92       	push	r0
 118:	11 24       	eor	r1, r1
 11a:	8f 93       	push	r24
 11c:	9f 93       	push	r25
 11e:	ef 93       	push	r30
 120:	ff 93       	push	r31
 122:	90 91 2d 01 	lds	r25, 0x012D
 126:	80 91 2e 01 	lds	r24, 0x012E
 12a:	98 17       	cp	r25, r24
 12c:	79 f0       	breq	.+30     	; 0x14c <__vector_19+0x3c>
 12e:	80 91 2e 01 	lds	r24, 0x012E
 132:	8f 5f       	subi	r24, 0xFF	; 255
 134:	8f 70       	andi	r24, 0x0F	; 15
 136:	80 93 2e 01 	sts	0x012E, r24
 13a:	e0 91 2e 01 	lds	r30, 0x012E
 13e:	f0 e0       	ldi	r31, 0x00	; 0
 140:	e1 5d       	subi	r30, 0xD1	; 209
 142:	fe 4f       	sbci	r31, 0xFE	; 254
 144:	80 81       	ld	r24, Z
 146:	80 93 c6 00 	sts	0x00C6, r24
 14a:	05 c0       	rjmp	.+10     	; 0x156 <__vector_19+0x46>
 14c:	80 91 c1 00 	lds	r24, 0x00C1
 150:	8f 7d       	andi	r24, 0xDF	; 223
 152:	80 93 c1 00 	sts	0x00C1, r24
 156:	ff 91       	pop	r31
 158:	ef 91       	pop	r30
 15a:	9f 91       	pop	r25
 15c:	8f 91       	pop	r24
 15e:	0f 90       	pop	r0
 160:	0f be       	out	0x3f, r0	; 63
 162:	0f 90       	pop	r0
 164:	1f 90       	pop	r1
 166:	18 95       	reti

00000168 <uart_getc>:
 168:	90 91 3f 01 	lds	r25, 0x013F
 16c:	80 91 40 01 	lds	r24, 0x0140
 170:	98 17       	cp	r25, r24
 172:	69 f0       	breq	.+26     	; 0x18e <uart_getc+0x26>
 174:	80 91 40 01 	lds	r24, 0x0140
 178:	8f 5f       	subi	r24, 0xFF	; 255
 17a:	8f 71       	andi	r24, 0x1F	; 31
 17c:	80 93 40 01 	sts	0x0140, r24
 180:	e0 91 40 01 	lds	r30, 0x0140
 184:	f0 e0       	ldi	r31, 0x00	; 0
 186:	ef 5b       	subi	r30, 0xBF	; 191
 188:	fe 4f       	sbci	r31, 0xFE	; 254
 18a:	80 81       	ld	r24, Z
 18c:	08 95       	ret
 18e:	80 e0       	ldi	r24, 0x00	; 0
 190:	08 95       	ret

00000192 <__vector_18>:
 192:	1f 92       	push	r1
 194:	0f 92       	push	r0
 196:	0f b6       	in	r0, 0x3f	; 63
 198:	0f 92       	push	r0
 19a:	11 24       	eor	r1, r1
 19c:	8f 93       	push	r24
 19e:	9f 93       	push	r25
 1a0:	ef 93       	push	r30
 1a2:	ff 93       	push	r31
 1a4:	80 91 c6 00 	lds	r24, 0x00C6
 1a8:	e0 91 3f 01 	lds	r30, 0x013F
 1ac:	ef 5f       	subi	r30, 0xFF	; 255
 1ae:	ef 71       	andi	r30, 0x1F	; 31
 1b0:	90 91 40 01 	lds	r25, 0x0140
 1b4:	e9 17       	cp	r30, r25
 1b6:	31 f0       	breq	.+12     	; 0x1c4 <__vector_18+0x32>
 1b8:	e0 93 3f 01 	sts	0x013F, r30
 1bc:	f0 e0       	ldi	r31, 0x00	; 0
 1be:	ef 5b       	subi	r30, 0xBF	; 191
 1c0:	fe 4f       	sbci	r31, 0xFE	; 254
 1c2:	80 83       	st	Z, r24
 1c4:	ff 91       	pop	r31
 1c6:	ef 91       	pop	r30
 1c8:	9f 91       	pop	r25
 1ca:	8f 91       	pop	r24
 1cc:	0f 90       	pop	r0
 1ce:	0f be       	out	0x3f, r0	; 63
 1d0:	0f 90       	pop	r0
 1d2:	1f 90       	pop	r1
 1d4:	18 95       	reti

000001d6 <i2cSetBitrate>:
 1d6:	bc 01       	movw	r22, r24
 1d8:	80 e2       	ldi	r24, 0x20	; 32
 1da:	9e e4       	ldi	r25, 0x4E	; 78
 1dc:	9b d1       	rcall	.+822    	; 0x514 <__udivmodhi4>
 1de:	86 2f       	mov	r24, r22
 1e0:	60 31       	cpi	r22, 0x10	; 16
 1e2:	38 f0       	brcs	.+14     	; 0x1f2 <i2cSetBitrate+0x1c>
 1e4:	77 27       	eor	r23, r23
 1e6:	cb 01       	movw	r24, r22
 1e8:	40 97       	sbiw	r24, 0x10	; 16
 1ea:	97 fd       	sbrc	r25, 7
 1ec:	01 96       	adiw	r24, 0x01	; 1
 1ee:	95 95       	asr	r25
 1f0:	87 95       	ror	r24
 1f2:	80 93 b8 00 	sts	0x00B8, r24
 1f6:	08 95       	ret

000001f8 <TWI_start>:
 1f8:	84 ea       	ldi	r24, 0xA4	; 164
 1fa:	80 93 bc 00 	sts	0x00BC, r24
 1fe:	80 91 bc 00 	lds	r24, 0x00BC
 202:	87 ff       	sbrs	r24, 7
 204:	fc cf       	rjmp	.-8      	; 0x1fe <TWI_start+0x6>
 206:	08 95       	ret

00000208 <TWI_stop>:
 208:	84 e9       	ldi	r24, 0x94	; 148
 20a:	80 93 bc 00 	sts	0x00BC, r24
 20e:	80 91 bc 00 	lds	r24, 0x00BC
 212:	84 ff       	sbrs	r24, 4
 214:	fc cf       	rjmp	.-8      	; 0x20e <TWI_stop+0x6>
 216:	08 95       	ret

00000218 <TWI_write>:
 218:	80 93 bb 00 	sts	0x00BB, r24
 21c:	84 e8       	ldi	r24, 0x84	; 132
 21e:	80 93 bc 00 	sts	0x00BC, r24
 222:	80 91 bc 00 	lds	r24, 0x00BC
 226:	87 ff       	sbrs	r24, 7
 228:	fc cf       	rjmp	.-8      	; 0x222 <TWI_write+0xa>
 22a:	08 95       	ret

0000022c <TWI_read>:
 22c:	20 e4       	ldi	r18, 0x40	; 64
 22e:	82 9f       	mul	r24, r18
 230:	c0 01       	movw	r24, r0
 232:	11 24       	eor	r1, r1
 234:	84 68       	ori	r24, 0x84	; 132
 236:	80 93 bc 00 	sts	0x00BC, r24
 23a:	80 91 bc 00 	lds	r24, 0x00BC
 23e:	87 ff       	sbrs	r24, 7
 240:	fc cf       	rjmp	.-8      	; 0x23a <TWI_read+0xe>
 242:	80 91 bb 00 	lds	r24, 0x00BB
 246:	08 95       	ret

00000248 <TWI_write_buf>:
 248:	ef 92       	push	r14
 24a:	ff 92       	push	r15
 24c:	1f 93       	push	r17
 24e:	cf 93       	push	r28
 250:	df 93       	push	r29
 252:	00 d0       	rcall	.+0      	; 0x254 <TWI_write_buf+0xc>
 254:	00 d0       	rcall	.+0      	; 0x256 <TWI_write_buf+0xe>
 256:	cd b7       	in	r28, 0x3d	; 61
 258:	de b7       	in	r29, 0x3e	; 62
 25a:	14 2f       	mov	r17, r20
 25c:	2b 83       	std	Y+3, r18	; 0x03
 25e:	3c 83       	std	Y+4, r19	; 0x04
 260:	6a 83       	std	Y+2, r22	; 0x02
 262:	89 83       	std	Y+1, r24	; 0x01
 264:	c9 df       	rcall	.-110    	; 0x1f8 <TWI_start>
 266:	89 81       	ldd	r24, Y+1	; 0x01
 268:	d7 df       	rcall	.-82     	; 0x218 <TWI_write>
 26a:	6a 81       	ldd	r22, Y+2	; 0x02
 26c:	86 2f       	mov	r24, r22
 26e:	d4 df       	rcall	.-88     	; 0x218 <TWI_write>
 270:	2b 81       	ldd	r18, Y+3	; 0x03
 272:	e2 2e       	mov	r14, r18
 274:	3c 81       	ldd	r19, Y+4	; 0x04
 276:	f3 2e       	mov	r15, r19
 278:	12 0f       	add	r17, r18
 27a:	1e 15       	cp	r17, r14
 27c:	29 f0       	breq	.+10     	; 0x288 <TWI_write_buf+0x40>
 27e:	f7 01       	movw	r30, r14
 280:	81 91       	ld	r24, Z+
 282:	7f 01       	movw	r14, r30
 284:	c9 df       	rcall	.-110    	; 0x218 <TWI_write>
 286:	f9 cf       	rjmp	.-14     	; 0x27a <TWI_write_buf+0x32>
 288:	0f 90       	pop	r0
 28a:	0f 90       	pop	r0
 28c:	0f 90       	pop	r0
 28e:	0f 90       	pop	r0
 290:	df 91       	pop	r29
 292:	cf 91       	pop	r28
 294:	1f 91       	pop	r17
 296:	ff 90       	pop	r15
 298:	ef 90       	pop	r14
 29a:	b6 cf       	rjmp	.-148    	; 0x208 <TWI_stop>

0000029c <TWI_read_buf>:
 29c:	ef 92       	push	r14
 29e:	ff 92       	push	r15
 2a0:	1f 93       	push	r17
 2a2:	cf 93       	push	r28
 2a4:	df 93       	push	r29
 2a6:	00 d0       	rcall	.+0      	; 0x2a8 <TWI_read_buf+0xc>
 2a8:	1f 92       	push	r1
 2aa:	cd b7       	in	r28, 0x3d	; 61
 2ac:	de b7       	in	r29, 0x3e	; 62
 2ae:	f8 2e       	mov	r15, r24
 2b0:	14 2f       	mov	r17, r20
 2b2:	2a 83       	std	Y+2, r18	; 0x02
 2b4:	3b 83       	std	Y+3, r19	; 0x03
 2b6:	69 83       	std	Y+1, r22	; 0x01
 2b8:	9f df       	rcall	.-194    	; 0x1f8 <TWI_start>
 2ba:	8f 2d       	mov	r24, r15
 2bc:	ad df       	rcall	.-166    	; 0x218 <TWI_write>
 2be:	69 81       	ldd	r22, Y+1	; 0x01
 2c0:	86 2f       	mov	r24, r22
 2c2:	aa df       	rcall	.-172    	; 0x218 <TWI_write>
 2c4:	99 df       	rcall	.-206    	; 0x1f8 <TWI_start>
 2c6:	81 e0       	ldi	r24, 0x01	; 1
 2c8:	8f 0d       	add	r24, r15
 2ca:	a6 df       	rcall	.-180    	; 0x218 <TWI_write>
 2cc:	11 50       	subi	r17, 0x01	; 1
 2ce:	2a 81       	ldd	r18, Y+2	; 0x02
 2d0:	e2 2e       	mov	r14, r18
 2d2:	3b 81       	ldd	r19, Y+3	; 0x03
 2d4:	f3 2e       	mov	r15, r19
 2d6:	1f 3f       	cpi	r17, 0xFF	; 255
 2d8:	51 f0       	breq	.+20     	; 0x2ee <TWI_read_buf+0x52>
 2da:	81 e0       	ldi	r24, 0x01	; 1
 2dc:	11 11       	cpse	r17, r1
 2de:	01 c0       	rjmp	.+2      	; 0x2e2 <TWI_read_buf+0x46>
 2e0:	80 e0       	ldi	r24, 0x00	; 0
 2e2:	a4 df       	rcall	.-184    	; 0x22c <TWI_read>
 2e4:	f7 01       	movw	r30, r14
 2e6:	81 93       	st	Z+, r24
 2e8:	7f 01       	movw	r14, r30
 2ea:	11 50       	subi	r17, 0x01	; 1
 2ec:	f4 cf       	rjmp	.-24     	; 0x2d6 <TWI_read_buf+0x3a>
 2ee:	0f 90       	pop	r0
 2f0:	0f 90       	pop	r0
 2f2:	0f 90       	pop	r0
 2f4:	df 91       	pop	r29
 2f6:	cf 91       	pop	r28
 2f8:	1f 91       	pop	r17
 2fa:	ff 90       	pop	r15
 2fc:	ef 90       	pop	r14
 2fe:	84 cf       	rjmp	.-248    	; 0x208 <TWI_stop>

00000300 <__vector_default>:
 300:	1f 92       	push	r1
 302:	0f 92       	push	r0
 304:	0f b6       	in	r0, 0x3f	; 63
 306:	0f 92       	push	r0
 308:	11 24       	eor	r1, r1
 30a:	0f 90       	pop	r0
 30c:	0f be       	out	0x3f, r0	; 63
 30e:	0f 90       	pop	r0
 310:	1f 90       	pop	r1
 312:	18 95       	reti

00000314 <__vector_21>:
 314:	1f 92       	push	r1
 316:	0f 92       	push	r0
 318:	0f b6       	in	r0, 0x3f	; 63
 31a:	0f 92       	push	r0
 31c:	11 24       	eor	r1, r1
 31e:	8f 93       	push	r24
 320:	9f 93       	push	r25
 322:	ef 93       	push	r30
 324:	ff 93       	push	r31
 326:	e0 91 2c 01 	lds	r30, 0x012C
 32a:	f0 e0       	ldi	r31, 0x00	; 0
 32c:	80 91 78 00 	lds	r24, 0x0078
 330:	90 91 79 00 	lds	r25, 0x0079
 334:	ee 0f       	add	r30, r30
 336:	ff 1f       	adc	r31, r31
 338:	ef 59       	subi	r30, 0x9F	; 159
 33a:	fe 4f       	sbci	r31, 0xFE	; 254
 33c:	91 83       	std	Z+1, r25	; 0x01
 33e:	80 83       	st	Z, r24
 340:	80 91 2c 01 	lds	r24, 0x012C
 344:	8f 5f       	subi	r24, 0xFF	; 255
 346:	80 93 2c 01 	sts	0x012C, r24
 34a:	80 91 2c 01 	lds	r24, 0x012C
 34e:	85 30       	cpi	r24, 0x05	; 5
 350:	10 f0       	brcs	.+4      	; 0x356 <__vector_21+0x42>
 352:	10 92 2c 01 	sts	0x012C, r1
 356:	e0 91 2c 01 	lds	r30, 0x012C
 35a:	f0 e0       	ldi	r31, 0x00	; 0
 35c:	e0 50       	subi	r30, 0x00	; 0
 35e:	ff 4f       	sbci	r31, 0xFF	; 255
 360:	80 81       	ld	r24, Z
 362:	80 93 7c 00 	sts	0x007C, r24
 366:	8d ee       	ldi	r24, 0xED	; 237
 368:	92 e0       	ldi	r25, 0x02	; 2
 36a:	01 97       	sbiw	r24, 0x01	; 1
 36c:	f1 f7       	brne	.-4      	; 0x36a <__vector_21+0x56>
 36e:	00 c0       	rjmp	.+0      	; 0x370 <__vector_21+0x5c>
 370:	00 00       	nop
 372:	80 91 7a 00 	lds	r24, 0x007A
 376:	80 64       	ori	r24, 0x40	; 64
 378:	80 93 7a 00 	sts	0x007A, r24
 37c:	ff 91       	pop	r31
 37e:	ef 91       	pop	r30
 380:	9f 91       	pop	r25
 382:	8f 91       	pop	r24
 384:	0f 90       	pop	r0
 386:	0f be       	out	0x3f, r0	; 63
 388:	0f 90       	pop	r0
 38a:	1f 90       	pop	r1
 38c:	18 95       	reti

0000038e <adc_init>:
 38e:	ea e7       	ldi	r30, 0x7A	; 122
 390:	f0 e0       	ldi	r31, 0x00	; 0
 392:	20 81       	ld	r18, Z
 394:	30 81       	ld	r19, Z
 396:	27 60       	ori	r18, 0x07	; 7
 398:	81 e0       	ldi	r24, 0x01	; 1
 39a:	90 e0       	ldi	r25, 0x00	; 0
 39c:	03 2e       	mov	r0, r19
 39e:	01 c0       	rjmp	.+2      	; 0x3a2 <adc_init+0x14>
 3a0:	88 0f       	add	r24, r24
 3a2:	0a 94       	dec	r0
 3a4:	ea f7       	brpl	.-6      	; 0x3a0 <adc_init+0x12>
 3a6:	28 2b       	or	r18, r24
 3a8:	20 83       	st	Z, r18
 3aa:	80 81       	ld	r24, Z
 3ac:	88 68       	ori	r24, 0x88	; 136
 3ae:	80 83       	st	Z, r24
 3b0:	80 e4       	ldi	r24, 0x40	; 64
 3b2:	80 93 7c 00 	sts	0x007C, r24
 3b6:	08 95       	ret

000003b8 <init_io>:
 3b8:	87 e2       	ldi	r24, 0x27	; 39
 3ba:	84 b9       	out	0x04, r24	; 4
 3bc:	17 b8       	out	0x07, r1	; 7
 3be:	80 ee       	ldi	r24, 0xE0	; 224
 3c0:	8a b9       	out	0x0a, r24	; 10
 3c2:	08 95       	ret

000003c4 <sw_pressed>:
 3c4:	20 91 69 01 	lds	r18, 0x0169
 3c8:	30 91 6a 01 	lds	r19, 0x016A
 3cc:	81 e0       	ldi	r24, 0x01	; 1
 3ce:	25 36       	cpi	r18, 0x65	; 101
 3d0:	31 05       	cpc	r19, r1
 3d2:	08 f0       	brcs	.+2      	; 0x3d6 <sw_pressed+0x12>
 3d4:	80 e0       	ldi	r24, 0x00	; 0
 3d6:	08 95       	ret

000003d8 <edge_detect>:
 3d8:	20 e0       	ldi	r18, 0x00	; 0
 3da:	30 e0       	ldi	r19, 0x00	; 0
 3dc:	80 e0       	ldi	r24, 0x00	; 0
 3de:	41 e0       	ldi	r20, 0x01	; 1
 3e0:	50 e0       	ldi	r21, 0x00	; 0
 3e2:	f9 01       	movw	r30, r18
 3e4:	ee 0f       	add	r30, r30
 3e6:	ff 1f       	adc	r31, r31
 3e8:	ef 59       	subi	r30, 0x9F	; 159
 3ea:	fe 4f       	sbci	r31, 0xFE	; 254
 3ec:	60 81       	ld	r22, Z
 3ee:	71 81       	ldd	r23, Z+1	; 0x01
 3f0:	64 3f       	cpi	r22, 0xF4	; 244
 3f2:	71 40       	sbci	r23, 0x01	; 1
 3f4:	38 f4       	brcc	.+14     	; 0x404 <edge_detect+0x2c>
 3f6:	ba 01       	movw	r22, r20
 3f8:	02 2e       	mov	r0, r18
 3fa:	01 c0       	rjmp	.+2      	; 0x3fe <edge_detect+0x26>
 3fc:	66 0f       	add	r22, r22
 3fe:	0a 94       	dec	r0
 400:	ea f7       	brpl	.-6      	; 0x3fc <edge_detect+0x24>
 402:	86 2b       	or	r24, r22
 404:	2f 5f       	subi	r18, 0xFF	; 255
 406:	3f 4f       	sbci	r19, 0xFF	; 255
 408:	24 30       	cpi	r18, 0x04	; 4
 40a:	31 05       	cpc	r19, r1
 40c:	51 f7       	brne	.-44     	; 0x3e2 <edge_detect+0xa>
 40e:	08 95       	ret

00000410 <main>:
 410:	d3 df       	rcall	.-90     	; 0x3b8 <init_io>
 412:	64 e1       	ldi	r22, 0x14	; 20
 414:	70 e0       	ldi	r23, 0x00	; 0
 416:	80 e0       	ldi	r24, 0x00	; 0
 418:	90 e0       	ldi	r25, 0x00	; 0
 41a:	28 de       	rcall	.-944    	; 0x6c <USART_Init>
 41c:	b8 df       	rcall	.-144    	; 0x38e <adc_init>
 41e:	78 94       	sei
 420:	5d 98       	cbi	0x0b, 5	; 11
 422:	5e 9a       	sbi	0x0b, 6	; 11
 424:	80 91 7a 00 	lds	r24, 0x007A
 428:	80 64       	ori	r24, 0x40	; 64
 42a:	80 93 7a 00 	sts	0x007A, r24
 42e:	83 b1       	in	r24, 0x03	; 3
 430:	83 b1       	in	r24, 0x03	; 3
 432:	89 b1       	in	r24, 0x09	; 9
 434:	c7 df       	rcall	.-114    	; 0x3c4 <sw_pressed>
 436:	88 23       	and	r24, r24
 438:	11 f0       	breq	.+4      	; 0x43e <main+0x2e>
 43a:	2d 98       	cbi	0x05, 5	; 5
 43c:	01 c0       	rjmp	.+2      	; 0x440 <main+0x30>
 43e:	2d 9a       	sbi	0x05, 5	; 5
 440:	1f 5f       	subi	r17, 0xFF	; 255
 442:	2f e3       	ldi	r18, 0x3F	; 63
 444:	8d e0       	ldi	r24, 0x0D	; 13
 446:	93 e0       	ldi	r25, 0x03	; 3
 448:	21 50       	subi	r18, 0x01	; 1
 44a:	80 40       	sbci	r24, 0x00	; 0
 44c:	90 40       	sbci	r25, 0x00	; 0
 44e:	e1 f7       	brne	.-8      	; 0x448 <main+0x38>
 450:	00 c0       	rjmp	.+0      	; 0x452 <main+0x42>
 452:	00 00       	nop
 454:	85 e0       	ldi	r24, 0x05	; 5
 456:	91 e0       	ldi	r25, 0x01	; 1
 458:	35 de       	rcall	.-918    	; 0xc4 <uart_puts>
 45a:	8a e0       	ldi	r24, 0x0A	; 10
 45c:	91 e0       	ldi	r25, 0x01	; 1
 45e:	32 de       	rcall	.-924    	; 0xc4 <uart_puts>
 460:	6a e0       	ldi	r22, 0x0A	; 10
 462:	70 e0       	ldi	r23, 0x00	; 0
 464:	81 2f       	mov	r24, r17
 466:	90 e0       	ldi	r25, 0x00	; 0
 468:	38 de       	rcall	.-912    	; 0xda <uart_putint>
 46a:	88 e2       	ldi	r24, 0x28	; 40
 46c:	91 e0       	ldi	r25, 0x01	; 1
 46e:	2a de       	rcall	.-940    	; 0xc4 <uart_puts>
 470:	b3 df       	rcall	.-154    	; 0x3d8 <edge_detect>
 472:	62 e0       	ldi	r22, 0x02	; 2
 474:	70 e0       	ldi	r23, 0x00	; 0
 476:	90 e0       	ldi	r25, 0x00	; 0
 478:	30 de       	rcall	.-928    	; 0xda <uart_putint>
 47a:	88 e2       	ldi	r24, 0x28	; 40
 47c:	91 e0       	ldi	r25, 0x01	; 1
 47e:	22 de       	rcall	.-956    	; 0xc4 <uart_puts>
 480:	c0 e0       	ldi	r28, 0x00	; 0
 482:	d0 e0       	ldi	r29, 0x00	; 0
 484:	81 e1       	ldi	r24, 0x11	; 17
 486:	91 e0       	ldi	r25, 0x01	; 1
 488:	1d de       	rcall	.-966    	; 0xc4 <uart_puts>
 48a:	fe 01       	movw	r30, r28
 48c:	ee 0f       	add	r30, r30
 48e:	ff 1f       	adc	r31, r31
 490:	ef 59       	subi	r30, 0x9F	; 159
 492:	fe 4f       	sbci	r31, 0xFE	; 254
 494:	80 81       	ld	r24, Z
 496:	91 81       	ldd	r25, Z+1	; 0x01
 498:	6a e0       	ldi	r22, 0x0A	; 10
 49a:	70 e0       	ldi	r23, 0x00	; 0
 49c:	1e de       	rcall	.-964    	; 0xda <uart_putint>
 49e:	88 e2       	ldi	r24, 0x28	; 40
 4a0:	91 e0       	ldi	r25, 0x01	; 1
 4a2:	10 de       	rcall	.-992    	; 0xc4 <uart_puts>
 4a4:	21 96       	adiw	r28, 0x01	; 1
 4a6:	c4 30       	cpi	r28, 0x04	; 4
 4a8:	d1 05       	cpc	r29, r1
 4aa:	61 f7       	brne	.-40     	; 0x484 <main+0x74>
 4ac:	89 e1       	ldi	r24, 0x19	; 25
 4ae:	91 e0       	ldi	r25, 0x01	; 1
 4b0:	09 de       	rcall	.-1006   	; 0xc4 <uart_puts>
 4b2:	80 91 69 01 	lds	r24, 0x0169
 4b6:	90 91 6a 01 	lds	r25, 0x016A
 4ba:	6a e0       	ldi	r22, 0x0A	; 10
 4bc:	70 e0       	ldi	r23, 0x00	; 0
 4be:	0d de       	rcall	.-998    	; 0xda <uart_putint>
 4c0:	84 e2       	ldi	r24, 0x24	; 36
 4c2:	91 e0       	ldi	r25, 0x01	; 1
 4c4:	ff dd       	rcall	.-1026   	; 0xc4 <uart_puts>
 4c6:	b6 cf       	rjmp	.-148    	; 0x434 <main+0x24>

000004c8 <motor_soft_start>:
 4c8:	08 95       	ret

000004ca <set_motors_dir>:
 4ca:	81 30       	cpi	r24, 0x01	; 1
 4cc:	49 f0       	breq	.+18     	; 0x4e0 <set_motors_dir+0x16>
 4ce:	28 f0       	brcs	.+10     	; 0x4da <set_motors_dir+0x10>
 4d0:	82 30       	cpi	r24, 0x02	; 2
 4d2:	59 f0       	breq	.+22     	; 0x4ea <set_motors_dir+0x20>
 4d4:	83 30       	cpi	r24, 0x03	; 3
 4d6:	61 f0       	breq	.+24     	; 0x4f0 <set_motors_dir+0x26>
 4d8:	08 95       	ret
 4da:	2d 9a       	sbi	0x05, 5	; 5
 4dc:	5e 98       	cbi	0x0b, 6	; 11
 4de:	02 c0       	rjmp	.+4      	; 0x4e4 <set_motors_dir+0x1a>
 4e0:	2d 98       	cbi	0x05, 5	; 5
 4e2:	5e 9a       	sbi	0x0b, 6	; 11
 4e4:	5d 98       	cbi	0x0b, 5	; 11
 4e6:	5e 9a       	sbi	0x0b, 6	; 11
 4e8:	08 95       	ret
 4ea:	2d 9a       	sbi	0x05, 5	; 5
 4ec:	5e 98       	cbi	0x0b, 6	; 11
 4ee:	02 c0       	rjmp	.+4      	; 0x4f4 <set_motors_dir+0x2a>
 4f0:	2d 98       	cbi	0x05, 5	; 5
 4f2:	5e 9a       	sbi	0x0b, 6	; 11
 4f4:	5d 9a       	sbi	0x0b, 5	; 11
 4f6:	5e 98       	cbi	0x0b, 6	; 11
 4f8:	08 95       	ret

000004fa <set_motors_vel>:
 4fa:	88 0f       	add	r24, r24
 4fc:	99 1f       	adc	r25, r25
 4fe:	90 93 89 00 	sts	0x0089, r25
 502:	80 93 88 00 	sts	0x0088, r24
 506:	66 0f       	add	r22, r22
 508:	77 1f       	adc	r23, r23
 50a:	70 93 8b 00 	sts	0x008B, r23
 50e:	60 93 8a 00 	sts	0x008A, r22
 512:	08 95       	ret

00000514 <__udivmodhi4>:
 514:	aa 1b       	sub	r26, r26
 516:	bb 1b       	sub	r27, r27
 518:	51 e1       	ldi	r21, 0x11	; 17
 51a:	07 c0       	rjmp	.+14     	; 0x52a <__udivmodhi4_ep>

0000051c <__udivmodhi4_loop>:
 51c:	aa 1f       	adc	r26, r26
 51e:	bb 1f       	adc	r27, r27
 520:	a6 17       	cp	r26, r22
 522:	b7 07       	cpc	r27, r23
 524:	10 f0       	brcs	.+4      	; 0x52a <__udivmodhi4_ep>
 526:	a6 1b       	sub	r26, r22
 528:	b7 0b       	sbc	r27, r23

0000052a <__udivmodhi4_ep>:
 52a:	88 1f       	adc	r24, r24
 52c:	99 1f       	adc	r25, r25
 52e:	5a 95       	dec	r21
 530:	a9 f7       	brne	.-22     	; 0x51c <__udivmodhi4_loop>
 532:	80 95       	com	r24
 534:	90 95       	com	r25
 536:	bc 01       	movw	r22, r24
 538:	cd 01       	movw	r24, r26
 53a:	08 95       	ret

0000053c <itoa>:
 53c:	45 32       	cpi	r20, 0x25	; 37
 53e:	51 05       	cpc	r21, r1
 540:	18 f4       	brcc	.+6      	; 0x548 <itoa+0xc>
 542:	42 30       	cpi	r20, 0x02	; 2
 544:	08 f0       	brcs	.+2      	; 0x548 <itoa+0xc>
 546:	04 c0       	rjmp	.+8      	; 0x550 <__itoa_ncheck>
 548:	fb 01       	movw	r30, r22
 54a:	10 82       	st	Z, r1
 54c:	cb 01       	movw	r24, r22
 54e:	08 95       	ret

00000550 <__itoa_ncheck>:
 550:	bb 27       	eor	r27, r27
 552:	4a 30       	cpi	r20, 0x0A	; 10
 554:	31 f4       	brne	.+12     	; 0x562 <__itoa_ncheck+0x12>
 556:	99 23       	and	r25, r25
 558:	22 f4       	brpl	.+8      	; 0x562 <__itoa_ncheck+0x12>
 55a:	bd e2       	ldi	r27, 0x2D	; 45
 55c:	90 95       	com	r25
 55e:	81 95       	neg	r24
 560:	9f 4f       	sbci	r25, 0xFF	; 255
 562:	01 c0       	rjmp	.+2      	; 0x566 <__utoa_common>

00000564 <__utoa_ncheck>:
 564:	bb 27       	eor	r27, r27

00000566 <__utoa_common>:
 566:	fb 01       	movw	r30, r22
 568:	55 27       	eor	r21, r21
 56a:	aa 27       	eor	r26, r26
 56c:	88 0f       	add	r24, r24
 56e:	99 1f       	adc	r25, r25
 570:	aa 1f       	adc	r26, r26
 572:	a4 17       	cp	r26, r20
 574:	10 f0       	brcs	.+4      	; 0x57a <__utoa_common+0x14>
 576:	a4 1b       	sub	r26, r20
 578:	83 95       	inc	r24
 57a:	50 51       	subi	r21, 0x10	; 16
 57c:	b9 f7       	brne	.-18     	; 0x56c <__utoa_common+0x6>
 57e:	a0 5d       	subi	r26, 0xD0	; 208
 580:	aa 33       	cpi	r26, 0x3A	; 58
 582:	08 f0       	brcs	.+2      	; 0x586 <__utoa_common+0x20>
 584:	a9 5d       	subi	r26, 0xD9	; 217
 586:	a1 93       	st	Z+, r26
 588:	00 97       	sbiw	r24, 0x00	; 0
 58a:	79 f7       	brne	.-34     	; 0x56a <__utoa_common+0x4>
 58c:	b1 11       	cpse	r27, r1
 58e:	b1 93       	st	Z+, r27
 590:	11 92       	st	Z+, r1
 592:	cb 01       	movw	r24, r22
 594:	00 c0       	rjmp	.+0      	; 0x596 <strrev>

00000596 <strrev>:
 596:	dc 01       	movw	r26, r24
 598:	fc 01       	movw	r30, r24
 59a:	67 2f       	mov	r22, r23
 59c:	71 91       	ld	r23, Z+
 59e:	77 23       	and	r23, r23
 5a0:	e1 f7       	brne	.-8      	; 0x59a <strrev+0x4>
 5a2:	32 97       	sbiw	r30, 0x02	; 2
 5a4:	04 c0       	rjmp	.+8      	; 0x5ae <strrev+0x18>
 5a6:	7c 91       	ld	r23, X
 5a8:	6d 93       	st	X+, r22
 5aa:	70 83       	st	Z, r23
 5ac:	62 91       	ld	r22, -Z
 5ae:	ae 17       	cp	r26, r30
 5b0:	bf 07       	cpc	r27, r31
 5b2:	c8 f3       	brcs	.-14     	; 0x5a6 <strrev+0x10>
 5b4:	08 95       	ret

000005b6 <_exit>:
 5b6:	f8 94       	cli

000005b8 <__stop_program>:
 5b8:	ff cf       	rjmp	.-2      	; 0x5b8 <__stop_program>
